target datalayout = "e-m:e-p270:32:32-p271:32:32-p272:64:64-i64:64-i128:128-f80:128-n8:16:32:64-S128"
target triple = "x86_64-unknown-linux-gnu"

%"struct.ODDLParser::DDLNodeIterator" = type { ptr, i64 }
%"class.std::__cxx11::basic_string" = type { %"struct.std::__cxx11::basic_string<char>::_Alloc_hider", i64, %union.anon }
%"struct.std::__cxx11::basic_string<char>::_Alloc_hider" = type { ptr }
%union.anon = type { i64, [8 x i8] }
%"class.__gnu_cxx::__normal_iterator" = type { ptr }
%"struct.std::_Vector_base" = type { %"struct.std::_Vector_base<ODDLParser::DDLNode *, std::allocator<ODDLParser::DDLNode *>>::_Vector_impl" }
%"struct.std::_Vector_base<ODDLParser::DDLNode *, std::allocator<ODDLParser::DDLNode *>>::_Vector_impl" = type { %"struct.std::_Vector_base<ODDLParser::DDLNode *, std::allocator<ODDLParser::DDLNode *>>::_Vector_impl_data" }
%"struct.std::_Vector_base<ODDLParser::DDLNode *, std::allocator<ODDLParser::DDLNode *>>::_Vector_impl_data" = type { ptr, ptr, ptr }

; Function Attrs: mustprogress nounwind uwtable
define linkonce_odr hidden noundef nonnull align 8 dereferenceable(8) ptr @_ZNK9__gnu_cxx17__normal_iteratorIPKPN10ODDLParser7DDLNodeESt6vectorIS3_SaIS3_EEE4baseEv(ptr noundef nonnull align 8 dereferenceable(8) %this) #4 comdat align 2 {
entry:
  %this.addr = alloca ptr, align 8
  store ptr %this, ptr %this.addr, align 8
  %this1 = load ptr, ptr %this.addr, align 8
  %_M_current = getelementptr inbounds %"class.__gnu_cxx::__normal_iterator", ptr %this1, i32 0, i32 0
  ret ptr %_M_current
}

; Function Attrs: mustprogress nounwind uwtable
define linkonce_odr hidden void @_ZN9__gnu_cxx17__normal_iteratorIPKPN10ODDLParser7DDLNodeESt6vectorIS3_SaIS3_EEEC2ERKS5_(ptr noundef nonnull align 8 dereferenceable(8) %this, ptr noundef nonnull align 8 dereferenceable(8) %__i) unnamed_addr #4 comdat align 2 {
entry:
  %this.addr = alloca ptr, align 8
  %__i.addr = alloca ptr, align 8
  store ptr %this, ptr %this.addr, align 8
  store ptr %__i, ptr %__i.addr, align 8
  %this1 = load ptr, ptr %this.addr, align 8
  %_M_current = getelementptr inbounds %"class.__gnu_cxx::__normal_iterator", ptr %this1, i32 0, i32 0
  %0 = load ptr, ptr %__i.addr, align 8
  %1 = load ptr, ptr %0, align 8
  store ptr %1, ptr %_M_current, align 8
  ret void
}

; Function Attrs: mustprogress nounwind uwtable
define linkonce_odr hidden noundef nonnull align 8 dereferenceable(8) ptr @_ZNKSt6vectorIPN10ODDLParser7DDLNodeESaIS2_EEixEm(ptr noundef nonnull align 8 dereferenceable(24) %this, i64 noundef %__n) #4 comdat align 2 {
entry:
  %this.addr = alloca ptr, align 8
  %__n.addr = alloca i64, align 8
  store ptr %this, ptr %this.addr, align 8
  store i64 %__n, ptr %__n.addr, align 8
  %this1 = load ptr, ptr %this.addr, align 8
  %_M_impl = getelementptr inbounds %"struct.std::_Vector_base", ptr %this1, i32 0, i32 0
  %_M_start = getelementptr inbounds %"struct.std::_Vector_base<ODDLParser::DDLNode *, std::allocator<ODDLParser::DDLNode *>>::_Vector_impl_data", ptr %_M_impl, i32 0, i32 0
  %0 = load ptr, ptr %_M_start, align 8
  %1 = load i64, ptr %__n.addr, align 8
  %add.ptr = getelementptr inbounds ptr, ptr %0, i64 %1
  ret ptr %add.ptr
}

; Function Attrs: mustprogress nounwind uwtable
define linkonce_odr hidden noundef i64 @_ZNKSt6vectorIPN10ODDLParser7DDLNodeESaIS2_EE4sizeEv(ptr noundef nonnull align 8 dereferenceable(24) %this) #4 comdat align 2 {
entry:
  %this.addr = alloca ptr, align 8
  store ptr %this, ptr %this.addr, align 8
  %this1 = load ptr, ptr %this.addr, align 8
  %_M_impl = getelementptr inbounds %"struct.std::_Vector_base", ptr %this1, i32 0, i32 0
  %_M_finish = getelementptr inbounds %"struct.std::_Vector_base<ODDLParser::DDLNode *, std::allocator<ODDLParser::DDLNode *>>::_Vector_impl_data", ptr %_M_impl, i32 0, i32 1
  %0 = load ptr, ptr %_M_finish, align 8
  %_M_impl2 = getelementptr inbounds %"struct.std::_Vector_base", ptr %this1, i32 0, i32 0
  %_M_start = getelementptr inbounds %"struct.std::_Vector_base<ODDLParser::DDLNode *, std::allocator<ODDLParser::DDLNode *>>::_Vector_impl_data", ptr %_M_impl2, i32 0, i32 0
  %1 = load ptr, ptr %_M_start, align 8
  %sub.ptr.lhs.cast = ptrtoint ptr %0 to i64
  %sub.ptr.rhs.cast = ptrtoint ptr %1 to i64
  %sub.ptr.sub = sub i64 %sub.ptr.lhs.cast, %sub.ptr.rhs.cast
  %sub.ptr.div = sdiv exact i64 %sub.ptr.sub, 8
  ret i64 %sub.ptr.div
}

; Function Attrs: mustprogress nounwind uwtable
define linkonce_odr hidden noundef zeroext i1 @_ZN9__gnu_cxxeqIPKPN10ODDLParser7DDLNodeESt6vectorIS3_SaIS3_EEEEbRKNS_17__normal_iteratorIT_T0_EESE_(ptr noundef nonnull align 8 dereferenceable(8) %__lhs, ptr noundef nonnull align 8 dereferenceable(8) %__rhs) #4 comdat {
entry:
  %__lhs.addr = alloca ptr, align 8
  %__rhs.addr = alloca ptr, align 8
  store ptr %__lhs, ptr %__lhs.addr, align 8
  store ptr %__rhs, ptr %__rhs.addr, align 8
  %0 = load ptr, ptr %__lhs.addr, align 8
  %call = call noundef nonnull align 8 dereferenceable(8) ptr @_ZNK9__gnu_cxx17__normal_iteratorIPKPN10ODDLParser7DDLNodeESt6vectorIS3_SaIS3_EEE4baseEv(ptr noundef nonnull align 8 dereferenceable(8) %0) #11
  %1 = load ptr, ptr %call, align 8
  %2 = load ptr, ptr %__rhs.addr, align 8
  %call1 = call noundef nonnull align 8 dereferenceable(8) ptr @_ZNK9__gnu_cxx17__normal_iteratorIPKPN10ODDLParser7DDLNodeESt6vectorIS3_SaIS3_EEE4baseEv(ptr noundef nonnull align 8 dereferenceable(8) %2) #11
  %3 = load ptr, ptr %call1, align 8
  %cmp = icmp eq ptr %1, %3
  ret i1 %cmp
}

; Function Attrs: mustprogress nounwind uwtable
define linkonce_odr hidden ptr @_ZNKSt6vectorIPN10ODDLParser7DDLNodeESaIS2_EE3endEv(ptr noundef nonnull align 8 dereferenceable(24) %this) #4 comdat align 2 {
entry:
  %retval = alloca %"class.__gnu_cxx::__normal_iterator", align 8
  %this.addr = alloca ptr, align 8
  store ptr %this, ptr %this.addr, align 8
  %this1 = load ptr, ptr %this.addr, align 8
  %_M_impl = getelementptr inbounds %"struct.std::_Vector_base", ptr %this1, i32 0, i32 0
  %_M_finish = getelementptr inbounds %"struct.std::_Vector_base<ODDLParser::DDLNode *, std::allocator<ODDLParser::DDLNode *>>::_Vector_impl_data", ptr %_M_impl, i32 0, i32 1
  call void @_ZN9__gnu_cxx17__normal_iteratorIPKPN10ODDLParser7DDLNodeESt6vectorIS3_SaIS3_EEEC2ERKS5_(ptr noundef nonnull align 8 dereferenceable(8) %retval, ptr noundef nonnull align 8 dereferenceable(8) %_M_finish) #11
  %coerce.dive = getelementptr inbounds %"class.__gnu_cxx::__normal_iterator", ptr %retval, i32 0, i32 0
  %0 = load ptr, ptr %coerce.dive, align 8
  ret ptr %0
}

; Function Attrs: mustprogress nounwind uwtable
define linkonce_odr hidden ptr @_ZNKSt6vectorIPN10ODDLParser7DDLNodeESaIS2_EE5beginEv(ptr noundef nonnull align 8 dereferenceable(24) %this) #4 comdat align 2 {
entry:
  %retval = alloca %"class.__gnu_cxx::__normal_iterator", align 8
  %this.addr = alloca ptr, align 8
  store ptr %this, ptr %this.addr, align 8
  %this1 = load ptr, ptr %this.addr, align 8
  %_M_impl = getelementptr inbounds %"struct.std::_Vector_base", ptr %this1, i32 0, i32 0
  %_M_start = getelementptr inbounds %"struct.std::_Vector_base<ODDLParser::DDLNode *, std::allocator<ODDLParser::DDLNode *>>::_Vector_impl_data", ptr %_M_impl, i32 0, i32 0
  call void @_ZN9__gnu_cxx17__normal_iteratorIPKPN10ODDLParser7DDLNodeESt6vectorIS3_SaIS3_EEEC2ERKS5_(ptr noundef nonnull align 8 dereferenceable(8) %retval, ptr noundef nonnull align 8 dereferenceable(8) %_M_start) #11
  %coerce.dive = getelementptr inbounds %"class.__gnu_cxx::__normal_iterator", ptr %retval, i32 0, i32 0
  %0 = load ptr, ptr %coerce.dive, align 8
  ret ptr %0
}

; Function Attrs: mustprogress nounwind uwtable
define linkonce_odr hidden void @_ZN10ODDLParser15DDLNodeIteratorD2Ev(ptr noundef nonnull align 8 dereferenceable(16) %this) unnamed_addr #4 comdat align 2 {
entry:
  %this.addr = alloca ptr, align 8
  store ptr %this, ptr %this.addr, align 8
  ret void
}

; Function Attrs: mustprogress nounwind uwtable
define linkonce_odr hidden noundef zeroext i1 @_ZN10ODDLParser15DDLNodeIterator7getNextEPPNS_7DDLNodeE(ptr noundef nonnull align 8 dereferenceable(16) %this, ptr noundef %node) #4 comdat align 2 {
entry:
  %retval = alloca i1, align 1
  %this.addr = alloca ptr, align 8
  %node.addr = alloca ptr, align 8
  store ptr %this, ptr %this.addr, align 8
  store ptr %node, ptr %node.addr, align 8
  %this1 = load ptr, ptr %this.addr, align 8
  %m_childs = getelementptr inbounds %"struct.ODDLParser::DDLNodeIterator", ptr %this1, i32 0, i32 0
  %0 = load ptr, ptr %m_childs, align 8
  %call = call noundef i64 @_ZNKSt6vectorIPN10ODDLParser7DDLNodeESaIS2_EE4sizeEv(ptr noundef nonnull align 8 dereferenceable(24) %0) #11
  %m_idx = getelementptr inbounds %"struct.ODDLParser::DDLNodeIterator", ptr %this1, i32 0, i32 1
  %1 = load i64, ptr %m_idx, align 8
  %add = add i64 %1, 1
  %cmp = icmp ugt i64 %call, %add
  br i1 %cmp, label %if.then, label %if.end

if.then:                                          ; preds = %entry
  %m_idx2 = getelementptr inbounds %"struct.ODDLParser::DDLNodeIterator", ptr %this1, i32 0, i32 1
  %2 = load i64, ptr %m_idx2, align 8
  %inc = add i64 %2, 1
  store i64 %inc, ptr %m_idx2, align 8
  %m_childs3 = getelementptr inbounds %"struct.ODDLParser::DDLNodeIterator", ptr %this1, i32 0, i32 0
  %3 = load ptr, ptr %m_childs3, align 8
  %m_idx4 = getelementptr inbounds %"struct.ODDLParser::DDLNodeIterator", ptr %this1, i32 0, i32 1
  %4 = load i64, ptr %m_idx4, align 8
  %call5 = call noundef nonnull align 8 dereferenceable(8) ptr @_ZNKSt6vectorIPN10ODDLParser7DDLNodeESaIS2_EEixEm(ptr noundef nonnull align 8 dereferenceable(24) %3, i64 noundef %4) #11
  %5 = load ptr, ptr %call5, align 8
  %6 = load ptr, ptr %node.addr, align 8
  store ptr %5, ptr %6, align 8
  store i1 true, ptr %retval, align 1
  br label %return

if.end:                                           ; preds = %entry
  store i1 false, ptr %retval, align 1
  br label %return

return:                                           ; preds = %if.end, %if.then
  %7 = load i1, ptr %retval, align 1
  ret i1 %7
}

; Function Attrs: mustprogress nounwind uwtable
define linkonce_odr hidden void @_ZN10ODDLParser15DDLNodeIteratorC2ERKSt6vectorIPNS_7DDLNodeESaIS3_EE(ptr noundef nonnull align 8 dereferenceable(16) %this, ptr noundef nonnull align 8 dereferenceable(24) %childs) unnamed_addr #4 comdat align 2 {
entry:
  %this.addr = alloca ptr, align 8
  %childs.addr = alloca ptr, align 8
  store ptr %this, ptr %this.addr, align 8
  store ptr %childs, ptr %childs.addr, align 8
  %this1 = load ptr, ptr %this.addr, align 8
  %m_childs = getelementptr inbounds %"struct.ODDLParser::DDLNodeIterator", ptr %this1, i32 0, i32 0
  %0 = load ptr, ptr %childs.addr, align 8
  store ptr %0, ptr %m_childs, align 8
  %m_idx = getelementptr inbounds %"struct.ODDLParser::DDLNodeIterator", ptr %this1, i32 0, i32 1
  store i64 0, ptr %m_idx, align 8
  ret void
}

; Function Attrs: mustprogress nounwind uwtable
define linkonce_odr hidden noundef zeroext i1 @_ZNKSt6vectorIPN10ODDLParser7DDLNodeESaIS2_EE5emptyEv(ptr noundef nonnull align 8 dereferenceable(24) %this) #4 comdat align 2 {
entry:
  %this.addr = alloca ptr, align 8
  %ref.tmp = alloca %"class.__gnu_cxx::__normal_iterator", align 8
  %ref.tmp2 = alloca %"class.__gnu_cxx::__normal_iterator", align 8
  store ptr %this, ptr %this.addr, align 8
  %this1 = load ptr, ptr %this.addr, align 8
  %call = call ptr @_ZNKSt6vectorIPN10ODDLParser7DDLNodeESaIS2_EE5beginEv(ptr noundef nonnull align 8 dereferenceable(24) %this1) #11
  %coerce.dive = getelementptr inbounds %"class.__gnu_cxx::__normal_iterator", ptr %ref.tmp, i32 0, i32 0
  store ptr %call, ptr %coerce.dive, align 8
  %call3 = call ptr @_ZNKSt6vectorIPN10ODDLParser7DDLNodeESaIS2_EE3endEv(ptr noundef nonnull align 8 dereferenceable(24) %this1) #11
  %coerce.dive4 = getelementptr inbounds %"class.__gnu_cxx::__normal_iterator", ptr %ref.tmp2, i32 0, i32 0
  store ptr %call3, ptr %coerce.dive4, align 8
  %call5 = call noundef zeroext i1 @_ZN9__gnu_cxxeqIPKPN10ODDLParser7DDLNodeESt6vectorIS3_SaIS3_EEEEbRKNS_17__normal_iteratorIT_T0_EESE_(ptr noundef nonnull align 8 dereferenceable(8) %ref.tmp, ptr noundef nonnull align 8 dereferenceable(8) %ref.tmp2) #11
  ret i1 %call5
}

; Function Attrs: mustprogress uwtable
define hidden noundef zeroext i1 @_ZN10ODDLParser13OpenDDLExport10handleNodeEPNS_7DDLNodeE(ptr noundef nonnull align 8 dereferenceable(8) %this, ptr noundef %node) #0 align 2 personality ptr @__gxx_personality_v0 {
entry:
  %retval = alloca i1, align 1
  %this.addr = alloca ptr, align 8
  %node.addr = alloca ptr, align 8
  %childs = alloca ptr, align 8
  %current = alloca ptr, align 8
  %it = alloca %"struct.ODDLParser::DDLNodeIterator", align 8
  %statement = alloca %"class.std::__cxx11::basic_string", align 8
  %success = alloca i8, align 1
  %exn.slot = alloca ptr, align 8
  %ehselector.slot = alloca i32, align 4
  store ptr %this, ptr %this.addr, align 8
  store ptr %node, ptr %node.addr, align 8
  %this1 = load ptr, ptr %this.addr, align 8
  %0 = load ptr, ptr %node.addr, align 8
  %cmp = icmp eq ptr null, %0
  br i1 %cmp, label %if.then, label %if.end

if.then:                                          ; preds = %entry
  store i1 true, ptr %retval, align 1
  br label %return

if.end:                                           ; preds = %entry
  %1 = load ptr, ptr %node.addr, align 8
  %call = call noundef nonnull align 8 dereferenceable(24) ptr @_ZNK10ODDLParser7DDLNode16getChildNodeListEv(ptr noundef nonnull align 8 dereferenceable(136) %1)
  store ptr %call, ptr %childs, align 8
  %2 = load ptr, ptr %childs, align 8
  %call2 = call noundef zeroext i1 @_ZNKSt6vectorIPN10ODDLParser7DDLNodeESaIS2_EE5emptyEv(ptr noundef nonnull align 8 dereferenceable(24) %2) #11
  br i1 %call2, label %if.then3, label %if.end4

if.then3:                                         ; preds = %if.end
  store i1 true, ptr %retval, align 1
  br label %return

if.end4:                                          ; preds = %if.end
  store ptr null, ptr %current, align 8
  %3 = load ptr, ptr %childs, align 8
  call void @_ZN10ODDLParser15DDLNodeIteratorC2ERKSt6vectorIPNS_7DDLNodeESaIS3_EE(ptr noundef nonnull align 8 dereferenceable(16) %it, ptr noundef nonnull align 8 dereferenceable(24) %3)
  call void @_ZNSt7__cxx1112basic_stringIcSt11char_traitsIcESaIcEEC1Ev(ptr noundef nonnull align 8 dereferenceable(32) %statement) #11
  store i8 1, ptr %success, align 1
  br label %while.cond

while.cond:                                       ; preds = %if.end16, %if.end4
  %call5 = invoke noundef zeroext i1 @_ZN10ODDLParser15DDLNodeIterator7getNextEPPNS_7DDLNodeE(ptr noundef nonnull align 8 dereferenceable(16) %it, ptr noundef %current)
          to label %invoke.cont unwind label %lpad

invoke.cont:                                      ; preds = %while.cond
  br i1 %call5, label %while.body, label %while.end

while.body:                                       ; preds = %invoke.cont
  %4 = load ptr, ptr %current, align 8
  %cmp6 = icmp ne ptr null, %4
  br i1 %cmp6, label %if.then7, label %if.end16

if.then7:                                         ; preds = %while.body
  %5 = load ptr, ptr %current, align 8
  %call9 = invoke noundef zeroext i1 @_ZN10ODDLParser13OpenDDLExport9writeNodeEPNS_7DDLNodeERNSt7__cxx1112basic_stringIcSt11char_traitsIcESaIcEEE(ptr noundef nonnull align 8 dereferenceable(8) %this1, ptr noundef %5, ptr noundef nonnull align 8 dereferenceable(32) %statement)
          to label %invoke.cont8 unwind label %lpad

invoke.cont8:                                     ; preds = %if.then7
  %conv = zext i1 %call9 to i32
  %6 = load i8, ptr %success, align 1
  %tobool = trunc i8 %6 to i1
  %conv10 = zext i1 %tobool to i32
  %or = or i32 %conv10, %conv
  %tobool11 = icmp ne i32 %or, 0
  %frombool = zext i1 %tobool11 to i8
  store i8 %frombool, ptr %success, align 1
  %7 = load ptr, ptr %current, align 8
  %call13 = invoke noundef zeroext i1 @_ZN10ODDLParser13OpenDDLExport10handleNodeEPNS_7DDLNodeE(ptr noundef nonnull align 8 dereferenceable(8) %this1, ptr noundef %7)
          to label %invoke.cont12 unwind label %lpad

invoke.cont12:                                    ; preds = %invoke.cont8
  br i1 %call13, label %if.end15, label %if.then14

if.then14:                                        ; preds = %invoke.cont12
  store i8 0, ptr %success, align 1
  br label %if.end15

lpad:                                             ; preds = %invoke.cont8, %if.then7, %while.cond
  %8 = landingpad { ptr, i32 }
          cleanup
  %9 = extractvalue { ptr, i32 } %8, 0
  store ptr %9, ptr %exn.slot, align 8
  %10 = extractvalue { ptr, i32 } %8, 1
  store i32 %10, ptr %ehselector.slot, align 4
  call void @_ZNSt7__cxx1112basic_stringIcSt11char_traitsIcESaIcEED1Ev(ptr noundef nonnull align 8 dereferenceable(32) %statement) #11
  call void @_ZN10ODDLParser15DDLNodeIteratorD2Ev(ptr noundef nonnull align 8 dereferenceable(16) %it) #11
  br label %eh.resume

if.end15:                                         ; preds = %if.then14, %invoke.cont12
  br label %if.end16

if.end16:                                         ; preds = %if.end15, %while.body
  br label %while.cond, !llvm.loop !4

while.end:                                        ; preds = %invoke.cont
  %11 = load i8, ptr %success, align 1
  %tobool17 = trunc i8 %11 to i1
  store i1 %tobool17, ptr %retval, align 1
  call void @_ZNSt7__cxx1112basic_stringIcSt11char_traitsIcESaIcEED1Ev(ptr noundef nonnull align 8 dereferenceable(32) %statement) #11
  call void @_ZN10ODDLParser15DDLNodeIteratorD2Ev(ptr noundef nonnull align 8 dereferenceable(16) %it) #11
  br label %return

return:                                           ; preds = %while.end, %if.then3, %if.then
  %12 = load i1, ptr %retval, align 1
  ret i1 %12

eh.resume:                                        ; preds = %lpad
  %exn = load ptr, ptr %exn.slot, align 8
  %sel = load i32, ptr %ehselector.slot, align 4
  %lpad.val = insertvalue { ptr, i32 } poison, ptr %exn, 0
  %lpad.val18 = insertvalue { ptr, i32 } %lpad.val, i32 %sel, 1
  resume { ptr, i32 } %lpad.val18
}