; Function Attrs: mustprogress uwtable
define hidden noundef zeroext i1 @_ZN10ODDLParser13OpenDDLExport10handleNodeEPNS_7DDLNodeE(ptr noundef nonnull readonly align 8 captures(none) dereferenceable(8) %this, ptr noundef %node) local_unnamed_addr #0 align 2 personality ptr @__gxx_personality_v0 {
entry:
  %statement = alloca %"class.std::__cxx11::basic_string", align 8
  %cmp = icmp eq ptr %node, null
  br i1 %cmp, label %return, label %if.end

if.end:                                           ; preds = %entry
  %call = tail call noundef nonnull align 8 dereferenceable(24) ptr @_ZNK10ODDLParser7DDLNode16getChildNodeListEv(ptr noundef nonnull align 8 dereferenceable(136) %node)
  %0 = load ptr, ptr %call, align 8
  %_M_finish.i.i = getelementptr inbounds nuw i8, ptr %call, i64 8
  %1 = load ptr, ptr %_M_finish.i.i, align 8
  %cmp.i.i = icmp eq ptr %0, %1
  br i1 %cmp.i.i, label %return, label %if.end4

if.end4:                                          ; preds = %if.end
  call void @_ZNSt7__cxx1112basic_stringIcSt11char_traitsIcESaIcEEC1Ev(ptr noundef nonnull align 8 dereferenceable(32) %statement) #14
  %2 = load ptr, ptr %_M_finish.i.i, align 8
  %3 = load ptr, ptr %call, align 8
  %sub.ptr.lhs.cast.i.i11 = ptrtoint ptr %2 to i64
  %sub.ptr.rhs.cast.i.i12 = ptrtoint ptr %3 to i64
  %sub.ptr.sub.i.i13 = sub i64 %sub.ptr.lhs.cast.i.i11, %sub.ptr.rhs.cast.i.i12
  %cmp.i15 = icmp ugt i64 %sub.ptr.sub.i.i13, 8
  br i1 %cmp.i15, label %while.body, label %while.end

while.body:                                       ; preds = %if.end4, %if.end16
  %4 = phi ptr [ %8, %if.end16 ], [ %3, %if.end4 ]
  %5 = phi ptr [ %9, %if.end16 ], [ %2, %if.end4 ]
  %add.i16 = phi i64 [ %add.i, %if.end16 ], [ 1, %if.end4 ]
  %add.ptr.i.i = getelementptr inbounds ptr, ptr %4, i64 %add.i16
  %6 = load ptr, ptr %add.ptr.i.i, align 8
  %cmp6.not = icmp eq ptr %6, null
  br i1 %cmp6.not, label %if.end16, label %if.then7

if.then7:                                         ; preds = %while.body
  %call9 = invoke noundef zeroext i1 @_ZN10ODDLParser13OpenDDLExport9writeNodeEPNS_7DDLNodeERNSt7__cxx1112basic_stringIcSt11char_traitsIcESaIcEEE(ptr noundef nonnull align 8 dereferenceable(8) %this, ptr noundef nonnull %6, ptr noundef nonnull align 8 dereferenceable(32) %statement)
          to label %invoke.cont8 unwind label %lpad

invoke.cont8:                                     ; preds = %if.then7
  %call13 = invoke noundef zeroext i1 @_ZN10ODDLParser13OpenDDLExport10handleNodeEPNS_7DDLNodeE(ptr noundef nonnull align 8 dereferenceable(8) %this, ptr noundef nonnull %6)
          to label %invoke.cont8.if.end16_crit_edge unwind label %lpad

invoke.cont8.if.end16_crit_edge:                  ; preds = %invoke.cont8
  %.pre = load ptr, ptr %_M_finish.i.i, align 8
  %.pre17 = load ptr, ptr %call, align 8
  br label %if.end16

lpad:                                             ; preds = %invoke.cont8, %if.then7
  %7 = landingpad { ptr, i32 }
          cleanup
  call void @_ZNSt7__cxx1112basic_stringIcSt11char_traitsIcESaIcEED1Ev(ptr noundef nonnull align 8 dereferenceable(32) %statement) #14
  resume { ptr, i32 } %7

if.end16:                                         ; preds = %invoke.cont8.if.end16_crit_edge, %while.body
  %8 = phi ptr [ %.pre17, %invoke.cont8.if.end16_crit_edge ], [ %4, %while.body ]
  %9 = phi ptr [ %.pre, %invoke.cont8.if.end16_crit_edge ], [ %5, %while.body ]
  %sub.ptr.lhs.cast.i.i = ptrtoint ptr %9 to i64
  %sub.ptr.rhs.cast.i.i = ptrtoint ptr %8 to i64
  %sub.ptr.sub.i.i = sub i64 %sub.ptr.lhs.cast.i.i, %sub.ptr.rhs.cast.i.i
  %sub.ptr.div.i.i = ashr exact i64 %sub.ptr.sub.i.i, 3
  %add.i = add nuw i64 %add.i16, 1
  %cmp.i = icmp ugt i64 %sub.ptr.div.i.i, %add.i
  br i1 %cmp.i, label %while.body, label %while.end, !llvm.loop !4

while.end:                                        ; preds = %if.end16, %if.end4
  call void @_ZNSt7__cxx1112basic_stringIcSt11char_traitsIcESaIcEED1Ev(ptr noundef nonnull align 8 dereferenceable(32) %statement) #14
  br label %return

return:                                           ; preds = %if.end, %entry, %while.end
  ret i1 true
}